target datalayout = "e-m:e-p270:32:32-p271:32:32-p272:64:64-i64:64-i128:128-f80:128-n8:16:32:64-S128"
target triple = "x86_64-pc-linux-gnu"

%struct._zval_struct = type { %union._zend_value, %union.anon, %union.anon.2 }
%union._zend_value = type { i64 }
%union.anon = type { i32 }
%union.anon.2 = type { i32 }
%struct.anon.0 = type { i8, i8, %union.anon.1 }
%union.anon.1 = type { i16 }

; Function Attrs: alwaysinline nounwind uwtable
define internal void @fast_long_add_function(ptr noundef %0, ptr noundef %1, ptr noundef %2) #1 {
  %4 = alloca ptr, align 8
  %5 = alloca ptr, align 8
  %6 = alloca ptr, align 8
  %7 = alloca ptr, align 8
  store ptr %0, ptr %4, align 8, !tbaa !12
  store ptr %1, ptr %5, align 8, !tbaa !12
  store ptr %2, ptr %6, align 8, !tbaa !12
  %8 = load ptr, ptr %4, align 8, !tbaa !12
  %9 = getelementptr inbounds nuw %struct._zval_struct, ptr %8, i32 0, i32 0
  %10 = load ptr, ptr %5, align 8, !tbaa !12
  %11 = getelementptr inbounds nuw %struct._zval_struct, ptr %10, i32 0, i32 0
  %12 = load ptr, ptr %6, align 8, !tbaa !12
  %13 = getelementptr inbounds nuw %struct._zval_struct, ptr %12, i32 0, i32 0
  callbr void asm sideeffect "movq\09($1), %rax\0A\09addq   ($2), %rax\0A\09jo     ${5:l}\0A\09movq   %rax, ($0)\0A\09movl   $3, ${4:c}($0)\0A", "r,r,r,n,n,!i,~{rax},~{cc},~{memory},~{dirflag},~{fpsr},~{flags}"(ptr %9, ptr %11, ptr %13, i32 4, i64 8) #20
          to label %14 [label %15], !srcloc !128

14:                                               ; preds = %3
  br label %31

15:                                               ; preds = %3
  br label %16

16:                                               ; preds = %15
  call void @llvm.lifetime.start.p0(i64 8, ptr %7) #20
  %17 = load ptr, ptr %4, align 8, !tbaa !12
  store ptr %17, ptr %7, align 8, !tbaa !12
  %18 = load ptr, ptr %5, align 8, !tbaa !12
  %19 = getelementptr inbounds nuw %struct._zval_struct, ptr %18, i32 0, i32 0
  %20 = load i64, ptr %19, align 8, !tbaa !11
  %21 = sitofp i64 %20 to double
  %22 = load ptr, ptr %6, align 8, !tbaa !12
  %23 = getelementptr inbounds nuw %struct._zval_struct, ptr %22, i32 0, i32 0
  %24 = load i64, ptr %23, align 8, !tbaa !11
  %25 = sitofp i64 %24 to double
  %26 = fadd double %21, %25
  %27 = load ptr, ptr %7, align 8, !tbaa !12
  %28 = getelementptr inbounds nuw %struct._zval_struct, ptr %27, i32 0, i32 0
  store double %26, ptr %28, align 8, !tbaa !11
  %29 = load ptr, ptr %7, align 8, !tbaa !12
  %30 = getelementptr inbounds nuw %struct._zval_struct, ptr %29, i32 0, i32 1
  store i32 5, ptr %30, align 8, !tbaa !11
  call void @llvm.lifetime.end.p0(i64 8, ptr %7) #20
  br label %31

31:                                               ; preds = %14, %16
  ret void
}

; Function Attrs: alwaysinline nounwind uwtable
define internal zeroext i8 @zval_get_type(ptr noundef %0) #1 {
  %2 = alloca ptr, align 8
  store ptr %0, ptr %2, align 8, !tbaa !12
  %3 = load ptr, ptr %2, align 8, !tbaa !12
  %4 = getelementptr inbounds nuw %struct._zval_struct, ptr %3, i32 0, i32 1
  %5 = getelementptr inbounds nuw %struct.anon.0, ptr %4, i32 0, i32 0
  %6 = load i8, ptr %5, align 8, !tbaa !11
  ret i8 %6
}

; Function Attrs: alwaysinline nounwind uwtable
define internal i32 @add_function_fast(ptr noundef %0, ptr noundef %1, ptr noundef %2) #1 {
  %4 = alloca i32, align 4
  %5 = alloca ptr, align 8
  %6 = alloca ptr, align 8
  %7 = alloca ptr, align 8
  %8 = alloca i8, align 1
  %9 = alloca i32, align 4
  %10 = alloca ptr, align 8
  %11 = alloca ptr, align 8
  %12 = alloca ptr, align 8
  store ptr %0, ptr %5, align 8, !tbaa !12
  store ptr %1, ptr %6, align 8, !tbaa !12
  store ptr %2, ptr %7, align 8, !tbaa !12
  call void @llvm.lifetime.start.p0(i64 1, ptr %8) #20
  %13 = load ptr, ptr %6, align 8, !tbaa !12
  %14 = call zeroext i8 @zval_get_type(ptr noundef %13)
  %15 = zext i8 %14 to i32
  %16 = shl i32 %15, 4
  %17 = load ptr, ptr %7, align 8, !tbaa !12
  %18 = call zeroext i8 @zval_get_type(ptr noundef %17)
  %19 = zext i8 %18 to i32
  %20 = or i32 %16, %19
  %21 = trunc i32 %20 to i8
  store i8 %21, ptr %8, align 1, !tbaa !11
  %22 = load i8, ptr %8, align 1, !tbaa !11
  %23 = zext i8 %22 to i32
  %24 = icmp eq i32 %23, 68
  %25 = xor i1 %24, true
  %26 = xor i1 %25, true
  %27 = zext i1 %26 to i32
  %28 = sext i32 %27 to i64
  %29 = call i64 @llvm.expect.i64(i64 %28, i64 1)
  %30 = icmp ne i64 %29, 0
  br i1 %30, label %31, label %35

31:                                               ; preds = %3
  %32 = load ptr, ptr %5, align 8, !tbaa !12
  %33 = load ptr, ptr %6, align 8, !tbaa !12
  %34 = load ptr, ptr %7, align 8, !tbaa !12
  call void @fast_long_add_function(ptr noundef %32, ptr noundef %33, ptr noundef %34)
  store i32 0, ptr %4, align 4
  store i32 1, ptr %9, align 4
  br label %130

35:                                               ; preds = %3
  %36 = load i8, ptr %8, align 1, !tbaa !11
  %37 = zext i8 %36 to i32
  %38 = icmp eq i32 %37, 85
  %39 = xor i1 %38, true
  %40 = xor i1 %39, true
  %41 = zext i1 %40 to i32
  %42 = sext i32 %41 to i64
  %43 = call i64 @llvm.expect.i64(i64 %42, i64 1)
  %44 = icmp ne i64 %43, 0
  br i1 %44, label %45, label %61

45:                                               ; preds = %35
  br label %46

46:                                               ; preds = %45
  call void @llvm.lifetime.start.p0(i64 8, ptr %10) #20
  %47 = load ptr, ptr %5, align 8, !tbaa !12
  store ptr %47, ptr %10, align 8, !tbaa !12
  %48 = load ptr, ptr %6, align 8, !tbaa !12
  %49 = getelementptr inbounds nuw %struct._zval_struct, ptr %48, i32 0, i32 0
  %50 = load double, ptr %49, align 8, !tbaa !11
  %51 = load ptr, ptr %7, align 8, !tbaa !12
  %52 = getelementptr inbounds nuw %struct._zval_struct, ptr %51, i32 0, i32 0
  %53 = load double, ptr %52, align 8, !tbaa !11
  %54 = fadd double %50, %53
  %55 = load ptr, ptr %10, align 8, !tbaa !12
  %56 = getelementptr inbounds nuw %struct._zval_struct, ptr %55, i32 0, i32 0
  store double %54, ptr %56, align 8, !tbaa !11
  %57 = load ptr, ptr %10, align 8, !tbaa !12
  %58 = getelementptr inbounds nuw %struct._zval_struct, ptr %57, i32 0, i32 1
  store i32 5, ptr %58, align 8, !tbaa !11
  call void @llvm.lifetime.end.p0(i64 8, ptr %10) #20
  br label %59

59:                                               ; preds = %46
  br label %60

60:                                               ; preds = %59
  store i32 0, ptr %4, align 4
  store i32 1, ptr %9, align 4
  br label %130

61:                                               ; preds = %35
  %62 = load i8, ptr %8, align 1, !tbaa !11
  %63 = zext i8 %62 to i32
  %64 = icmp eq i32 %63, 69
  %65 = xor i1 %64, true
  %66 = xor i1 %65, true
  %67 = zext i1 %66 to i32
  %68 = sext i32 %67 to i64
  %69 = call i64 @llvm.expect.i64(i64 %68, i64 1)
  %70 = icmp ne i64 %69, 0
  br i1 %70, label %71, label %88

71:                                               ; preds = %61
  br label %72

72:                                               ; preds = %71
  call void @llvm.lifetime.start.p0(i64 8, ptr %11) #20
  %73 = load ptr, ptr %5, align 8, !tbaa !12
  store ptr %73, ptr %11, align 8, !tbaa !12
  %74 = load ptr, ptr %6, align 8, !tbaa !12
  %75 = getelementptr inbounds nuw %struct._zval_struct, ptr %74, i32 0, i32 0
  %76 = load i64, ptr %75, align 8, !tbaa !11
  %77 = sitofp i64 %76 to double
  %78 = load ptr, ptr %7, align 8, !tbaa !12
  %79 = getelementptr inbounds nuw %struct._zval_struct, ptr %78, i32 0, i32 0
  %80 = load double, ptr %79, align 8, !tbaa !11
  %81 = fadd double %77, %80
  %82 = load ptr, ptr %11, align 8, !tbaa !12
  %83 = getelementptr inbounds nuw %struct._zval_struct, ptr %82, i32 0, i32 0
  store double %81, ptr %83, align 8, !tbaa !11
  %84 = load ptr, ptr %11, align 8, !tbaa !12
  %85 = getelementptr inbounds nuw %struct._zval_struct, ptr %84, i32 0, i32 1
  store i32 5, ptr %85, align 8, !tbaa !11
  call void @llvm.lifetime.end.p0(i64 8, ptr %11) #20
  br label %86

86:                                               ; preds = %72
  br label %87

87:                                               ; preds = %86
  store i32 0, ptr %4, align 4
  store i32 1, ptr %9, align 4
  br label %130

88:                                               ; preds = %61
  %89 = load i8, ptr %8, align 1, !tbaa !11
  %90 = zext i8 %89 to i32
  %91 = icmp eq i32 %90, 84
  %92 = xor i1 %91, true
  %93 = xor i1 %92, true
  %94 = zext i1 %93 to i32
  %95 = sext i32 %94 to i64
  %96 = call i64 @llvm.expect.i64(i64 %95, i64 1)
  %97 = icmp ne i64 %96, 0
  br i1 %97, label %98, label %115

98:                                               ; preds = %88
  br label %99

99:                                               ; preds = %98
  call void @llvm.lifetime.start.p0(i64 8, ptr %12) #20
  %100 = load ptr, ptr %5, align 8, !tbaa !12
  store ptr %100, ptr %12, align 8, !tbaa !12
  %101 = load ptr, ptr %6, align 8, !tbaa !12
  %102 = getelementptr inbounds nuw %struct._zval_struct, ptr %101, i32 0, i32 0
  %103 = load double, ptr %102, align 8, !tbaa !11
  %104 = load ptr, ptr %7, align 8, !tbaa !12
  %105 = getelementptr inbounds nuw %struct._zval_struct, ptr %104, i32 0, i32 0
  %106 = load i64, ptr %105, align 8, !tbaa !11
  %107 = sitofp i64 %106 to double
  %108 = fadd double %103, %107
  %109 = load ptr, ptr %12, align 8, !tbaa !12
  %110 = getelementptr inbounds nuw %struct._zval_struct, ptr %109, i32 0, i32 0
  store double %108, ptr %110, align 8, !tbaa !11
  %111 = load ptr, ptr %12, align 8, !tbaa !12
  %112 = getelementptr inbounds nuw %struct._zval_struct, ptr %111, i32 0, i32 1
  store i32 5, ptr %112, align 8, !tbaa !11
  call void @llvm.lifetime.end.p0(i64 8, ptr %12) #20
  br label %113

113:                                              ; preds = %99
  br label %114

114:                                              ; preds = %113
  store i32 0, ptr %4, align 4
  store i32 1, ptr %9, align 4
  br label %130

115:                                              ; preds = %88
  %116 = load i8, ptr %8, align 1, !tbaa !11
  %117 = zext i8 %116 to i32
  %118 = icmp eq i32 %117, 119
  %119 = xor i1 %118, true
  %120 = xor i1 %119, true
  %121 = zext i1 %120 to i32
  %122 = sext i32 %121 to i64
  %123 = call i64 @llvm.expect.i64(i64 %122, i64 1)
  %124 = icmp ne i64 %123, 0
  br i1 %124, label %125, label %129

125:                                              ; preds = %115
  %126 = load ptr, ptr %5, align 8, !tbaa !12
  %127 = load ptr, ptr %6, align 8, !tbaa !12
  %128 = load ptr, ptr %7, align 8, !tbaa !12
  call void @add_function_array(ptr noundef %126, ptr noundef %127, ptr noundef %128)
  store i32 0, ptr %4, align 4
  store i32 1, ptr %9, align 4
  br label %130

129:                                              ; preds = %115
  store i32 -1, ptr %4, align 4
  store i32 1, ptr %9, align 4
  br label %130

130:                                              ; preds = %129, %125, %114, %87, %60, %31
  call void @llvm.lifetime.end.p0(i64 1, ptr %8) #20
  %131 = load i32, ptr %4, align 4
  ret i32 %131
}

; Function Attrs: nounwind uwtable
define dso_local i32 @add_function(ptr noundef %0, ptr noundef %1, ptr noundef %2) #0 {
  %4 = alloca i32, align 4
  %5 = alloca ptr, align 8
  %6 = alloca ptr, align 8
  %7 = alloca ptr, align 8
  store ptr %0, ptr %5, align 8, !tbaa !12
  store ptr %1, ptr %6, align 8, !tbaa !12
  store ptr %2, ptr %7, align 8, !tbaa !12
  %8 = load ptr, ptr %5, align 8, !tbaa !12
  %9 = load ptr, ptr %6, align 8, !tbaa !12
  %10 = load ptr, ptr %7, align 8, !tbaa !12
  %11 = call i32 @add_function_fast(ptr noundef %8, ptr noundef %9, ptr noundef %10)
  %12 = icmp eq i32 %11, 0
  br i1 %12, label %13, label %14

13:                                               ; preds = %3
  store i32 0, ptr %4, align 4
  br label %19

14:                                               ; preds = %3
  %15 = load ptr, ptr %5, align 8, !tbaa !12
  %16 = load ptr, ptr %6, align 8, !tbaa !12
  %17 = load ptr, ptr %7, align 8, !tbaa !12
  %18 = call i32 @add_function_slow(ptr noundef %15, ptr noundef %16, ptr noundef %17)
  store i32 %18, ptr %4, align 4
  br label %19

19:                                               ; preds = %14, %13
  %20 = load i32, ptr %4, align 4
  ret i32 %20
}